target datalayout = "e-m:e-p270:32:32-p271:32:32-p272:64:64-i64:64-i128:128-f80:128-n8:16:32:64-S128"
target triple = "x86_64-pc-linux-gnu"

%class.QCache = type { %"struct.QCache<unsigned int, QList<QString>>::Chain", %"struct.QHashPrivate::Data", i64, i64 }
%"struct.QCache<unsigned int, QList<QString>>::Chain" = type { ptr, ptr }
%"struct.QHashPrivate::Data" = type { %"class.QtPrivate::RefCount", i64, i64, i64, ptr }
%"class.QtPrivate::RefCount" = type { %class.QBasicAtomicInteger }
%class.QBasicAtomicInteger = type { %"struct.std::atomic" }
%"struct.std::atomic" = type { %"struct.std::__atomic_base" }
%"struct.std::__atomic_base" = type { i32 }
%class.PacketListRecord = type <{ ptr, ptr, i32, i8, [3 x i8], i32, i8, [3 x i8], i32, i8, [3 x i8] }>

@_ZN16PacketListRecord15col_text_cache_E = global %class.QCache zeroinitializer, align 8
@_ZN16PacketListRecord15rows_color_ver_E = global i32 1, align 4

; Function Attrs: mustprogress nounwind uwtable
define linkonce_odr noundef i64 @_ZNK6QCacheIj5QListI7QStringEE7maxCostEv(ptr noundef nonnull align 8 dereferenceable(72) %0) #1 comdat align 2 {
  %2 = alloca ptr, align 8
  store ptr %0, ptr %2, align 8
  %3 = load ptr, ptr %2, align 8
  %4 = getelementptr inbounds %class.QCache, ptr %3, i32 0, i32 2
  %5 = load i64, ptr %4, align 8
  ret i64 %5
}

; Function Attrs: mustprogress nounwind uwtable
define linkonce_odr noundef i64 @_ZNK6QCacheIj5QListI7QStringEE9totalCostEv(ptr noundef nonnull align 8 dereferenceable(72) %0) #1 comdat align 2 {
  %2 = alloca ptr, align 8
  store ptr %0, ptr %2, align 8
  %3 = load ptr, ptr %2, align 8
  %4 = getelementptr inbounds %class.QCache, ptr %3, i32 0, i32 3
  %5 = load i64, ptr %4, align 8
  ret i64 %5
}

; Function Attrs: mustprogress uwtable
define void @_ZN16PacketListRecord15ensureColorizedEP13_capture_file(ptr noundef nonnull align 8 dereferenceable(37) %0, ptr noundef %1) #4 align 2 {
  %3 = alloca ptr, align 8
  %4 = alloca ptr, align 8
  %5 = alloca i8, align 1
  %6 = alloca i8, align 1
  store ptr %0, ptr %3, align 8
  store ptr %1, ptr %4, align 8
  %7 = load ptr, ptr %3, align 8
  %8 = load ptr, ptr %4, align 8
  %9 = icmp ne ptr %8, null
  br i1 %9, label %11, label %10

10:                                               ; preds = %2
  br label %35

11:                                               ; preds = %2
  %12 = getelementptr inbounds %class.PacketListRecord, ptr %7, i32 0, i32 6
  %13 = load i8, ptr %12, align 4
  %14 = trunc i8 %13 to i1
  br i1 %14, label %15, label %20

15:                                               ; preds = %11
  %16 = getelementptr inbounds %class.PacketListRecord, ptr %7, i32 0, i32 5
  %17 = load i32, ptr %16, align 8
  %18 = load i32, ptr @_ZN16PacketListRecord15rows_color_ver_E, align 4
  %19 = icmp ne i32 %17, %18
  br label %20

20:                                               ; preds = %15, %11
  %21 = phi i1 [ true, %11 ], [ %19, %15 ]
  %22 = zext i1 %21 to i8
  store i8 %22, ptr %5, align 1
  %23 = load i8, ptr %5, align 1
  %24 = trunc i8 %23 to i1
  br i1 %24, label %25, label %35

25:                                               ; preds = %20
  %26 = call noundef i64 @_ZNK6QCacheIj5QListI7QStringEE9totalCostEv(ptr noundef nonnull align 8 dereferenceable(72) @_ZN16PacketListRecord15col_text_cache_E) #2
  %27 = call noundef i64 @_ZNK6QCacheIj5QListI7QStringEE7maxCostEv(ptr noundef nonnull align 8 dereferenceable(72) @_ZN16PacketListRecord15col_text_cache_E) #2
  %28 = icmp slt i64 %26, %27
  %29 = zext i1 %28 to i8
  store i8 %29, ptr %6, align 1
  %30 = load ptr, ptr %4, align 8
  %31 = load i8, ptr %6, align 1
  %32 = trunc i8 %31 to i1
  %33 = load i8, ptr %5, align 1
  %34 = trunc i8 %33 to i1
  call void @_ZN16PacketListRecord7dissectEP13_capture_filebb(ptr noundef nonnull align 8 dereferenceable(37) %7, ptr noundef %30, i1 noundef zeroext %32, i1 noundef zeroext %34)
  br label %35

35:                                               ; preds = %25, %20, %10
  ret void
}