; Function Attrs: mustprogress uwtable
define void @_ZN16PacketListRecord15ensureColorizedEP13_capture_file(ptr nocapture noundef nonnull align 8 dereferenceable(37) %0, ptr noundef %1) local_unnamed_addr #5 align 2 {
  %.not = icmp eq ptr %1, null
  br i1 %.not, label %16, label %3

3:                                                ; preds = %2
  %4 = getelementptr inbounds i8, ptr %0, i64 28
  %5 = load i8, ptr %4, align 4
  %6 = and i8 %5, 1
  %.not6 = icmp eq i8 %6, 0
  %7 = getelementptr inbounds i8, ptr %0, i64 24
  %8 = load i32, ptr %7, align 8
  %9 = load i32, ptr @_ZN16PacketListRecord15rows_color_ver_E, align 4
  %10 = icmp ne i32 %8, %9
  %11 = select i1 %.not6, i1 true, i1 %10
  br i1 %11, label %12, label %16

12:                                               ; preds = %3
  %13 = load i64, ptr getelementptr inbounds (%class.QCache, ptr @_ZN16PacketListRecord15col_text_cache_E, i64 0, i32 3), align 8
  %14 = load i64, ptr getelementptr inbounds (%class.QCache, ptr @_ZN16PacketListRecord15col_text_cache_E, i64 0, i32 2), align 8
  %15 = icmp slt i64 %13, %14
  tail call void @_ZN16PacketListRecord7dissectEP13_capture_filebb(ptr noundef nonnull align 8 dereferenceable(37) %0, ptr noundef nonnull %1, i1 noundef zeroext %15, i1 noundef zeroext true)
  br label %16

16:                                               ; preds = %2, %12, %3
  ret void
}